; Function Attrs: mustprogress uwtable
define void @_ZN3nix25DrvOutputSubstitutionGoal8finishedEv(ptr noundef nonnull align 8 dereferenceable(928) %0) local_unnamed_addr #4 align 2 personality ptr @__gxx_personality_v0 {
  %2 = alloca %"class.std::optional.27", align 8
  tail call void @_ZN3nix4Goal5traceESt17basic_string_viewIcSt11char_traitsIcEE(ptr noundef nonnull align 8 dereferenceable(720) %0, i64 8, ptr nonnull @.str.11)
  %3 = getelementptr inbounds i8, ptr %2, i64 376
  store i8 0, ptr %3, align 8
  invoke void @_ZN3nix4Goal6amDoneENS0_8ExitCodeESt8optionalINS_5ErrorEE(ptr noundef nonnull align 8 dereferenceable(720) %0, i32 noundef 1, ptr noundef nonnull %2)
          to label %4 unwind label %20

4:                                                ; preds = %1
  %5 = load i8, ptr %3, align 8
  %6 = and i8 %5, 1
  %.not.i.i.i.i = icmp eq i8 %6, 0
  br i1 %.not.i.i.i.i, label %_ZNSt8optionalIN3nix5ErrorEED2Ev.exit, label %7

7:                                                ; preds = %4
  store i8 0, ptr %3, align 8
  store ptr getelementptr inbounds ({ [5 x ptr] }, ptr @_ZTVN3nix9BaseErrorE, i64 0, i32 0, i64 2), ptr %2, align 8
  %8 = getelementptr inbounds i8, ptr %2, i64 336
  %9 = getelementptr inbounds i8, ptr %2, i64 368
  %10 = load i8, ptr %9, align 8
  %11 = and i8 %10, 1
  %.not.i.i.i.i.i.i.i.i.i.i.i = icmp eq i8 %11, 0
  br i1 %.not.i.i.i.i.i.i.i.i.i.i.i, label %_ZNSt22_Optional_payload_baseIN3nix5ErrorEE10_M_destroyEv.exit.i.i.i.i, label %12

12:                                               ; preds = %7
  store i8 0, ptr %9, align 8
  %13 = load ptr, ptr %8, align 8
  %14 = getelementptr inbounds i8, ptr %2, i64 352
  %15 = icmp eq ptr %13, %14
  br i1 %15, label %_ZNKSt7__cxx1112basic_stringIcSt11char_traitsIcESaIcEE11_M_is_localEv.exit.thread.i.i.i.i.i.i.i.i.i.i.i.i.i.i, label %_ZNKSt7__cxx1112basic_stringIcSt11char_traitsIcESaIcEE11_M_is_localEv.exit.i.i.i.i.i.i.i.i.i.i.i.i.i.i

_ZNKSt7__cxx1112basic_stringIcSt11char_traitsIcESaIcEE11_M_is_localEv.exit.thread.i.i.i.i.i.i.i.i.i.i.i.i.i.i: ; preds = %12
  %16 = getelementptr inbounds i8, ptr %2, i64 344
  %17 = load i64, ptr %16, align 8
  %18 = icmp ult i64 %17, 16
  call void @llvm.assume(i1 %18)
  br label %_ZNSt22_Optional_payload_baseINSt7__cxx1112basic_stringIcSt11char_traitsIcESaIcEEEE10_M_destroyEv.exit.i.i.i.i.i.i.i.i.i.i.i

_ZNKSt7__cxx1112basic_stringIcSt11char_traitsIcESaIcEE11_M_is_localEv.exit.i.i.i.i.i.i.i.i.i.i.i.i.i.i: ; preds = %12
  call void @_ZdlPv(ptr noundef %13) #28
  br label %_ZNSt22_Optional_payload_baseINSt7__cxx1112basic_stringIcSt11char_traitsIcESaIcEEEE10_M_destroyEv.exit.i.i.i.i.i.i.i.i.i.i.i

_ZNSt22_Optional_payload_baseINSt7__cxx1112basic_stringIcSt11char_traitsIcESaIcEEEE10_M_destroyEv.exit.i.i.i.i.i.i.i.i.i.i.i: ; preds = %_ZNKSt7__cxx1112basic_stringIcSt11char_traitsIcESaIcEE11_M_is_localEv.exit.i.i.i.i.i.i.i.i.i.i.i.i.i.i, %_ZNKSt7__cxx1112basic_stringIcSt11char_traitsIcESaIcEE11_M_is_localEv.exit.thread.i.i.i.i.i.i.i.i.i.i.i.i.i.i
  call void @_ZNSaIcED2Ev(ptr noundef nonnull align 1 dereferenceable(1) %8) #27
  br label %_ZNSt22_Optional_payload_baseIN3nix5ErrorEE10_M_destroyEv.exit.i.i.i.i

_ZNSt22_Optional_payload_baseIN3nix5ErrorEE10_M_destroyEv.exit.i.i.i.i: ; preds = %_ZNSt22_Optional_payload_baseINSt7__cxx1112basic_stringIcSt11char_traitsIcESaIcEEEE10_M_destroyEv.exit.i.i.i.i.i.i.i.i.i.i.i, %7
  %19 = getelementptr inbounds i8, ptr %2, i64 8
  call void @_ZN3nix9ErrorInfoD2Ev(ptr noundef nonnull align 8 dereferenceable(328) %19) #27
  call void @_ZNSt9exceptionD2Ev(ptr noundef nonnull align 8 dereferenceable(8) %2) #27
  br label %_ZNSt8optionalIN3nix5ErrorEED2Ev.exit

_ZNSt8optionalIN3nix5ErrorEED2Ev.exit:            ; preds = %4, %_ZNSt22_Optional_payload_baseIN3nix5ErrorEE10_M_destroyEv.exit.i.i.i.i
  ret void

20:                                               ; preds = %1
  %21 = landingpad { ptr, i32 }
          cleanup
  call void @_ZNSt8optionalIN3nix5ErrorEED2Ev(ptr noundef nonnull align 8 dereferenceable(384) %2) #27
  resume { ptr, i32 } %21
}